ccopy_reg
_reconstructor
p0
(cpandas.core.frame
DataFrame
p1
c__builtin__
object
p2
Ntp3
Rp4
(dp5
S'_metadata'
p6
(lp7
sS'_typ'
p8
S'dataframe'
p9
sS'_data'
p10
g0
(cpandas.core.internals
BlockManager
p11
g2
Ntp12
Rp13
((lp14
cpandas.indexes.base
_new_Index
p15
(cpandas.indexes.base
Index
p16
(dp17
S'data'
p18
cnumpy.core.multiarray
_reconstruct
p19
(cnumpy
ndarray
p20
(I0
tp21
S'b'
p22
tp23
Rp24
(I1
(I143
tp25
cnumpy
dtype
p26
(S'O8'
p27
I0
I1
tp28
Rp29
(I3
S'|'
p30
NNNI-1
I-1
I63
tp31
bI00
(lp32
S'ALLEN PHILLIP K'
p33
aS'BADUM JAMES P'
p34
aS'BANNANTINE JAMES M'
p35
aS'BAXTER JOHN C'
p36
aS'BAY FRANKLIN R'
p37
aS'BAZELIDES PHILIP J'
p38
aS'BECK SALLY W'
p39
aS'BELDEN TIMOTHY N'
p40
aS'BELFER ROBERT'
p41
aS'BERBERIAN DAVID'
p42
aS'BERGSIEKER RICHARD P'
p43
aS'BHATNAGAR SANJAY'
p44
aS'BIBI PHILIPPE A'
p45
aS'BLACHMAN JEREMY M'
p46
aS'BLAKE JR. NORMAN P'
p47
aS'BOWEN JR RAYMOND M'
p48
aS'BROWN MICHAEL'
p49
aS'BUCHANAN HAROLD G'
p50
aS'BUTTS ROBERT H'
p51
aS'BUY RICHARD B'
p52
aS'CALGER CHRISTOPHER F'
p53
aS'CARTER REBECCA C'
p54
aS'CAUSEY RICHARD A'
p55
aS'CHAN RONNIE'
p56
aS'CHRISTODOULOU DIOMEDES'
p57
aS'CLINE KENNETH W'
p58
aS'COLWELL WESLEY'
p59
aS'CORDES WILLIAM R'
p60
aS'COX DAVID'
p61
aS'CUMBERLAND MICHAEL S'
p62
aS'DEFFNER JOSEPH M'
p63
aS'DELAINEY DAVID W'
p64
aS'DERRICK JR. JAMES V'
p65
aS'DETMERING TIMOTHY J'
p66
aS'DIETRICH JANET R'
p67
aS'DIMICHELE RICHARD G'
p68
aS'DODSON KEITH'
p69
aS'DONAHUE JR JEFFREY M'
p70
aS'DUNCAN JOHN H'
p71
aS'DURAN WILLIAM D'
p72
aS'ECHOLS JOHN B'
p73
aS'ELLIOTT STEVEN'
p74
aS'FALLON JAMES B'
p75
aS'FASTOW ANDREW S'
p76
aS'FITZGERALD JAY L'
p77
aS'FOWLER PEGGY'
p78
aS'FOY JOE'
p79
aS'FREVERT MARK A'
p80
aS'FUGH JOHN L'
p81
aS'GAHN ROBERT S'
p82
aS'GARLAND C KEVIN'
p83
aS'GATHMANN WILLIAM D'
p84
aS'GIBBS DANA R'
p85
aS'GILLIS JOHN'
p86
aS'GLISAN JR BEN F'
p87
aS'GOLD JOSEPH'
p88
aS'GRAMM WENDY L'
p89
aS'GRAY RODNEY'
p90
aS'HAEDICKE MARK E'
p91
aS'HANNON KEVIN P'
p92
aS'HAUG DAVID L'
p93
aS'HAYES ROBERT E'
p94
aS'HAYSLETT RODERICK J'
p95
aS'HERMANN ROBERT J'
p96
aS'HICKERSON GARY J'
p97
aS'HIRKO JOSEPH'
p98
aS'HORTON STANLEY C'
p99
aS'HUGHES JAMES A'
p100
aS'HUMPHREY GENE E'
p101
aS'IZZO LAWRENCE L'
p102
aS'JACKSON CHARLENE R'
p103
aS'JAEDICKE ROBERT'
p104
aS'KAMINSKI WINCENTY J'
p105
aS'KEAN STEVEN J'
p106
aS'KISHKILL JOSEPH G'
p107
aS'KITCHEN LOUISE'
p108
aS'KOENIG MARK E'
p109
aS'KOPPER MICHAEL J'
p110
aS'LAVORATO JOHN J'
p111
aS'LAY KENNETH L'
p112
aS'LEFF DANIEL P'
p113
aS'LEMAISTRE CHARLES'
p114
aS'LEWIS RICHARD'
p115
aS'LINDHOLM TOD A'
p116
aS'LOWRY CHARLES P'
p117
aS'MARTIN AMANDA K'
p118
aS'MCCARTY DANNY J'
p119
aS'MCCLELLAN GEORGE'
p120
aS'MCCONNELL MICHAEL S'
p121
aS'MCDONALD REBECCA'
p122
aS'MCMAHON JEFFREY'
p123
aS'MENDELSOHN JOHN'
p124
aS'METTS MARK'
p125
aS'MEYER JEROME J'
p126
aS'MEYER ROCKFORD G'
p127
aS'MORAN MICHAEL P'
p128
aS'MORDAUNT KRISTINA M'
p129
aS'MULLER MARK S'
p130
aS'MURRAY JULIA H'
p131
aS'NOLES JAMES L'
p132
aS'OLSON CINDY K'
p133
aS'OVERDYKE JR JERE C'
p134
aS'PAI LOU L'
p135
aS'PEREIRA PAULO V. FERRAZ'
p136
aS'PICKERING MARK R'
p137
aS'PIPER GREGORY F'
p138
aS'PIRO JIM'
p139
aS'POWERS WILLIAM'
p140
aS'PRENTICE JAMES'
p141
aS'REDMOND BRIAN L'
p142
aS'REYNOLDS LAWRENCE'
p143
aS'RICE KENNETH D'
p144
aS'RIEKER PAULA H'
p145
aS'SAVAGE FRANK'
p146
aS'SCRIMSHAW MATTHEW'
p147
aS'SHANKMAN JEFFREY A'
p148
aS'SHAPIRO RICHARD S'
p149
aS'SHARP VICTORIA T'
p150
aS'SHELBY REX'
p151
aS'SHERRICK JEFFREY B'
p152
aS'SHERRIFF JOHN R'
p153
aS'SKILLING JEFFREY K'
p154
aS'STABLER FRANK'
p155
aS'SULLIVAN-SHAKLOVITZ COLLEEN'
p156
aS'SUNDE MARTIN'
p157
aS'TAYLOR MITCHELL S'
p158
aS'THORN TERENCE H'
p159
aS'TILNEY ELIZABETH A'
p160
aS'UMANOFF ADAM S'
p161
aS'URQUHART JOHN A'
p162
aS'WAKEHAM JOHN'
p163
aS'WALLS JR ROBERT H'
p164
aS'WALTERS GARETH W'
p165
aS'WASAFF GEORGE'
p166
aS'WESTFAHL RICHARD K'
p167
aS'WHALEY DAVID A'
p168
aS'WHALLEY LAWRENCE G'
p169
aS'WHITE JR THOMAS E'
p170
aS'WINOKUR JR. HERBERT S'
p171
aS'WODRASKA JOHN'
p172
aS'WROBEL BRUCE'
p173
aS'YEAGER F SCOTT'
p174
aS'YEAP SOON'
p175
atp176
bsS'name'
p177
Nstp178
Rp179
ag15
(g16
(dp180
g18
g19
(g20
(I0
tp181
g22
tp182
Rp183
(I1
(I25
tp184
g29
I00
(lp185
S'bonus'
p186
aS'deferral_payments'
p187
aS'deferred_income'
p188
aS'director_fees'
p189
aS'email_address'
p190
aS'exercised_stock_options'
p191
aS'expenses'
p192
aS'from_messages'
p193
aS'from_poi_to_this_person'
p194
aS'from_this_person_to_poi'
p195
aS'loan_advances'
p196
aS'long_term_incentive'
p197
aS'other'
p198
aS'poi'
p199
aS'restricted_stock'
p200
aS'restricted_stock_deferred'
p201
aS'salary'
p202
aS'shared_receipt_with_poi'
p203
aS'to_messages'
p204
aS'total_payments'
p205
aS'total_stock_value'
p206
aS'fraction_from_poi'
p207
aS'fraction_to_poi'
p208
aS'fraction_total_poi'
p209
aS'wealth'
p210
atp211
bsg177
Nstp212
Rp213
a(lp214
g19
(g20
(I0
tp215
g22
tp216
Rp217
(I1
(I143
I25
tp218
g29
I00
(lp219
I4175000
aI2869717
aI-3081055
aS'NaN'
p220
aS'phillip.allen@enron.com'
p221
aI1729541
aI13868
aI2195
aI47
aI65
ag220
aI304805
aI152
aI00
aI126027
aI-126027
aI201955
aI1407
aI2902
aI4484442
aI1729541
aF0.016195727084769126
aF0.029612756264236904
aF0.0219737100255052
aI7836037
ag220
aI178980
ag220
ag220
ag220
aI257817
aI3486
ag220
ag220
ag220
ag220
ag220
ag220
aI00
ag220
ag220
ag220
ag220
ag220
aI182466
aI257817
aI0
aI0
aI0
aS'NaN'
p222
ag220
ag220
aI-5104
ag220
aS'james.bannantine@enron.com'
p223
aI4046157
aI56301
aI29
aI39
aI0
ag220
ag220
aI864523
aI00
aI1757552
aI-560222
aI477
aI465
aI566
aI916197
aI5243487
aF0.06890459363957598
aF0.0
aF0.06554621848739496
ag222
aI1200000
aI1295738
aI-1386055
ag220
ag220
aI6680544
aI11200
ag220
ag220
ag220
ag220
aI1586055
aI2660303
aI00
aI3942714
ag220
aI267102
ag220
ag220
aI5634343
aI10623258
aI0
aI0
aI0
aI18770904
aI400000
aI260455
aI-201641
ag220
aS'frank.bay@enron.com'
p224
ag220
aI129142
ag220
ag220
ag220
ag220
ag220
aI69
aI00
aI145796
aI-82782
aI239671
ag220
ag220
aI827696
aI63014
aI0
aI0
aI0
ag222
ag220
aI684694
ag220
ag220
ag220
aI1599641
ag220
ag220
ag220
ag220
ag220
aI93750
aI874
aI00
ag220
ag220
aI80818
ag220
ag220
aI860136
aI1599641
aI0
aI0
aI0
ag222
aI700000
ag220
ag220
ag220
aS'sally.beck@enron.com'
p225
ag220
aI37172
aI4343
aI144
aI386
ag220
ag220
aI566
aI00
aI126027
ag220
aI231330
aI2639
aI7315
aI969068
aI126027
aF0.01968557758031442
aF0.08887865530739121
aF0.0454623434551381
ag222
aI5249999
aI2144013
aI-2334434
ag220
aS'tim.belden@enron.com'
p226
aI953136
aI17355
aI484
aI228
aI108
ag220
ag220
aI210698
aI01
aI157569
ag220
aI213999
aI5521
aI7991
aI5501630
aI1110705
aF0.028532098610937303
aF0.2231404958677686
aF0.03964601769911504
aI7527839
ag220
aI-102500
ag220
aI3285
ag220
aI3285
ag220
ag220
ag220
ag220
ag220
ag220
ag220
aI00
ag220
aI44093
ag220
ag220
ag220
aI102500
aI-44093
aI0
aI0
aI0
ag222
ag220
ag220
ag220
ag220
aS'david.berberian@enron.com'
p227
aI1624396
aI11892
ag220
ag220
ag220
ag220
ag220
ag220
aI00
aI869220
ag220
aI216582
ag220
ag220
aI228474
aI2493616
aI0
aI0
aI0
ag222
aI250000
ag220
aI-485813
ag220
aS'rick.bergsieker@enron.com'
p228
ag220
aI59175
aI59
aI4
aI0
ag220
aI180250
aI427316
aI00
aI659249
ag220
aI187922
aI233
aI383
aI618850
aI659249
aF0.010443864229765013
aF0.0
aF0.00904977375565611
ag222
ag220
ag220
ag220
aI137864
aS'sanjay.bhatnagar@enron.com'
p229
aI2604490
ag220
aI29
aI0
aI1
ag220
ag220
aI137864
aI00
aI-2604490
aI15456290
ag220
aI463
aI523
aI15456290
aS'NaN'
p230
aF0.0
aF0.034482758620689655
aF0.0018115942028985507
ag222
aI1000000
ag220
ag220
ag220
aS'philippe.bibi@enron.com'
p231
aI1465734
aI38559
aI40
aI23
aI8
ag220
aI369721
aI425688
aI00
aI378082
ag220
aI213625
aI1336
aI1607
aI2047593
aI1843816
aF0.01431238332296204
aF0.2
aF0.018822100789313904
aI4523175
aI850000
ag220
ag220
ag220
aS'jeremy.blachman@enron.com'
p232
aI765313
aI84208
aI14
aI25
aI2
ag220
aI831809
aI272
aI00
aI189041
ag220
aI248546
aI2326
aI2475
aI2014835
aI954354
aF0.010101010101010102
aF0.14285714285714285
aF0.010847730012053034
aI2818213
ag220
ag220
aI-113784
aI113784
ag220
ag220
aI1279
ag220
ag220
ag220
ag220
ag220
ag220
aI00
ag220
ag220
ag220
ag220
ag220
aI1279
ag220
aI0
aI0
aI0
ag222
aI1350000
ag220
aI-833
ag220
aS'raymond.bowen@enron.com'
p233
ag220
aI65907
aI27
aI140
aI15
ag220
aI974293
aI1621
aI01
aI252055
ag220
aI278601
aI1593
aI1858
aI2669589
aI252055
aF0.07534983853606028
aF0.5555555555555556
aF0.08222811671087533
ag222
ag220
ag220
ag220
ag220
aS'michael.brown@enron.com'
p234
ag220
aI49288
aI41
aI13
aI1
ag220
ag220
ag220
aI00
ag220
ag220
ag220
aI761
aI1486
aI49288
ag220
aF0.008748317631224764
aF0.024390243902439025
aF0.0091683038637852
ag222
aI500000
ag220
ag220
ag220
aS'john.buchanan@enron.com'
p235
aI825464
aI600
aI125
aI0
aI0
ag220
aI304805
aI1215
aI00
aI189041
ag220
aI248017
aI23
aI1088
aI1054637
aI1014505
aF0.0
aF0.0
aF0.0
aI2587986
aI750000
ag220
aI-75000
ag220
aS'bob.butts@enron.com'
p236
ag220
aI9410
ag220
ag220
ag220
ag220
aI175000
aI150656
aI00
aI417619
ag220
aI261516
ag220
ag220
aI1271582
aI417619
aI0
aI0
aI0
ag222
aI900000
aI649584
aI-694862
ag220
aS'rick.buy@enron.com'
p237
aI2542813
ag220
aI1053
aI156
aI71
ag220
aI769862
aI400572
aI00
aI901657
ag220
aI330546
aI2333
aI3523
aI2355702
aI3444470
aF0.04428044280442804
aF0.06742640075973409
aF0.04960664335664336
aI7217829
aI1250000
ag220
aI-262500
ag220
aS'christopher.calger@enron.com'
p238
ag220
aI35818
aI144
aI199
aI25
ag220
aI375304
aI486
aI01
aI126027
ag220
aI240189
aI2188
aI2598
aI1639297
aI126027
aF0.07659738260200154
aF0.1736111111111111
aF0.08169219547775347
ag222
aI300000
ag220
aI-159792
ag220
aS'rebecca.carter@enron.com'
p239
ag220
ag220
aI15
aI29
aI7
ag220
aI75000
aI540
aI00
aI307301
aI-307301
aI261809
aI196
aI312
aI477557
ag220
aF0.09294871794871795
aF0.4666666666666667
aF0.11009174311926606
ag222
aI1000000
ag220
aI-235000
ag220
aS'richard.causey@enron.com'
p240
ag220
aI30674
aI49
aI58
aI12
ag220
aI350000
aI307895
aI01
aI2502063
ag220
aI415189
aI1585
aI1892
aI1868758
aI2502063
aF0.0306553911205074
aF0.24489795918367346
aF0.03606388459556929
ag222
ag220
ag220
aI-98784
aI98784
ag220
ag220
ag220
ag220
ag220
ag220
ag220
ag220
ag220
aI00
aI32460
aI-32460
ag220
ag220
ag220
ag220
ag220
aI0
aI0
aI0
ag222
ag220
ag220
ag220
ag220
aS'diomedes.christodoulou@enron.com'
p241
aI5127155
ag220
ag220
ag220
ag220
ag220
ag220
ag220
aI00
aI950730
ag220
ag220
ag220
ag220
ag220
aI6077885
aI0
aI0
aI0
ag222
ag220
ag220
ag220
ag220
ag220
ag220
ag220
ag220
ag220
ag220
ag220
ag220
ag220
aI00
aI662086
aI-472568
ag220
ag220
ag220
ag220
aI189518
aI0
aI0
aI0
ag222
aI1200000
aI27610
aI-144062
ag220
aS'wes.colwell@enron.com'
p242
ag220
aI16514
aI40
aI240
aI11
ag220
ag220
aI101740
aI01
aI698242
ag220
aI288542
aI1132
aI1758
aI1490344
aI698242
aF0.13651877133105803
aF0.275
aF0.13959955506117908
ag222
ag220
ag220
ag220
ag220
aS'bill.cordes@enron.com'
p243
aI651850
ag220
aI12
aI10
aI0
ag220
ag220
ag220
aI00
aI386335
ag220
ag220
aI58
aI764
ag220
aI1038185
aF0.013089005235602094
aF0.0
aF0.01288659793814433
ag222
aI800000
ag220
aI-41250
ag220
aS'chip.cox@enron.com'
p244
aI117551
aI27861
aI33
aI0
aI4
ag220
ag220
aI494
aI00
aI378082
ag220
aI314288
aI71
aI102
aI1101393
aI495633
aF0.0
aF0.12121212121212122
aF0.02962962962962963
aI1727472
aI325000
ag220
ag220
ag220
ag220
ag220
aI22344
ag220
ag220
ag220
ag220
aI275000
aI713
aI00
aI207940
ag220
aI184899
ag220
ag220
aI807956
aI207940
aI0
aI0
aI0
ag222
aI600000
ag220
ag220
ag220
aS'joseph.deffner@enron.com'
p245
aI17378
aI41626
aI74
aI115
aI4
ag220
aI335349
aI25553
aI00
aI141833
ag220
aI206121
aI552
aI714
aI1208649
aI159211
aF0.16106442577030813
aF0.05405405405405406
aF0.15101522842639595
aI982710
aI3000000
ag220
ag220
ag220
aS'david.delainey@enron.com'
p246
aI2291113
aI86174
aI3069
aI66
aI609
ag220
aI1294981
aI1661
aI01
aI1323148
ag220
aI365163
aI2097
aI3093
aI4747979
aI3614261
aF0.02133850630455868
aF0.198435972629521
aF0.10954235637779941
aI9270537
aI800000
ag220
aI-1284000
ag220
aS'james.derrick@enron.com'
p247
aI8831913
aI51124
aI909
aI64
aI20
ag220
aI484000
aI7482
aI00
aI1787380
aI-1787380
aI492375
aI1401
aI2181
aI550981
aI8831913
aF0.029344337459880788
aF0.022002200220022004
aF0.027184466019417475
aI18956201
aI425000
aI875307
aI-775241
ag220
aS'timothy.detmering@enron.com'
p248
aI2027865
aI52255
ag220
ag220
ag220
ag220
aI415657
aI1105
aI00
aI315068
aI-315068
aI210500
ag220
ag220
aI1204583
aI2027865
aI0
aI0
aI0
aI4691230
aI600000
ag220
ag220
ag220
aS'janet.dietrich@enron.com'
p249
aI1550019
aI3475
aI63
aI305
aI14
ag220
aI556416
aI473
aI00
aI315068
ag220
aI250100
aI1902
aI2572
aI1410464
aI1865087
aF0.11858475894245724
aF0.2222222222222222
aF0.12106261859582543
aI4265206
aI1000000
ag220
ag220
ag220
aS'richard.dimichele@enron.com'
p250
aI8191755
aI35812
ag220
ag220
ag220
ag220
aI694862
aI374689
aI00
aI126027
ag220
aI262788
ag220
ag220
aI2368151
aI8317782
aI0
aI0
aI0
aI17772325
aI70000
ag220
ag220
ag220
aS'keith.dodson@enron.com'
p251
ag220
aI28164
aI14
aI10
aI3
ag220
ag220
aI774
aI00
ag220
ag220
aI221003
aI114
aI176
aI319941
ag220
aF0.056818181818181816
aF0.21428571428571427
aF0.06842105263157895
ag222
aI800000
ag220
aI-300000
ag220
aS'jeff.donahue@enron.com'
p252
aI765920
aI96268
aI22
aI188
aI11
ag220
ag220
aI891
aI00
aI315068
ag220
aI278601
aI772
aI865
aI875760
aI1080988
aF0.21734104046242775
aF0.5
aF0.22435174746335965
aI2925509
ag220
ag220
aI-25000
aI102492
ag220
aI371750
ag220
ag220
ag220
ag220
ag220
ag220
ag220
aI00
ag220
ag220
ag220
ag220
ag220
aI77492
aI371750
aI0
aI0
aI0
ag222
aI750000
ag220
ag220
ag220
aS'w.duran@enron.com'
p253
aI1451869
aI25785
aI12
aI106
aI3
ag220
aI1105218
aI1568
aI00
aI189041
ag220
aI210692
aI599
aI904
aI2093263
aI1640910
aF0.1172566371681416
aF0.25
aF0.11899563318777293
aI4053471
aI200000
ag220
ag220
ag220
aS'john.echols@enron.com'
p254
aI601438
aI21530
ag220
ag220
ag220
ag220
aI2234774
aI53775
aI00
aI407503
ag220
aI182245
ag220
ag220
aI2692324
aI1008941
aI0
aI0
aI0
aI1992624
aI350000
ag220
aI-400729
ag220
aS'steven.elliott@enron.com'
p255
aI4890344
aI78552
ag220
ag220
ag220
ag220
ag220
aI12961
aI00
aI1788391
ag220
aI170941
ag220
ag220
aI211725
aI6678735
aI0
aI0
aI0
aI12090020
aI2500000
ag220
ag220
ag220
aS'jim.fallon@enron.com'
p256
aI940257
aI95924
aI75
aI42
aI37
ag220
aI374347
aI401481
aI00
aI1392142
ag220
aI304588
aI1604
aI1755
aI3676340
aI2332399
aF0.023931623931623933
aF0.49333333333333335
aF0.04316939890710383
aI6077244
aI1300000
ag220
aI-1386055
ag220
aS'andrew.fastow@enron.com'
p257
ag220
aI55921
ag220
ag220
ag220
ag220
aI1736055
aI277464
aI01
aI1794412
ag220
aI440698
ag220
ag220
aI2424083
aI1794412
aI0
aI0
aI0
ag222
aI350000
ag220
ag220
ag220
aS'jay.fitzgerald@enron.com'
p258
aI664461
aI23870
aI16
aI1
aI8
ag220
aI556416
aI285414
aI00
aI956775
ag220
aI199157
aI723
aI936
aI1414857
aI1621236
aF0.0010683760683760685
aF0.5
aF0.009453781512605041
aI2834854
ag220
ag220
ag220
ag220
aS'kulvinder.fowler@enron.com'
p259
aI1324578
ag220
aI36
aI0
aI0
ag220
ag220
ag220
aI00
aI560170
ag220
ag220
aI10
aI517
ag220
aI1884748
aF0.0
aF0.0
aF0.0
ag222
ag220
aI181755
ag220
ag220
aS'tracy.foy@enron.com'
p260
aI343434
ag220
aI13
aI0
aI0
ag220
ag220
ag220
aI00
ag220
ag220
ag220
aI2
aI57
aI181755
aI343434
aF0.0
aF0.0
aF0.0
ag222
aI2000000
aI6426990
aI-3367011
ag220
aS'mark.frevert@enron.com'
p261
aI10433518
aI86987
aI21
aI242
aI6
aI2000000
aI1617011
aI7427621
aI00
aI4188667
ag220
aI1060932
aI2979
aI3275
aI17252530
aI14622185
aF0.07389312977099237
aF0.2857142857142857
aF0.07524271844660194
aI28116635
ag220
aI50591
ag220
ag220
ag220
aI176378
ag220
ag220
ag220
ag220
ag220
ag220
ag220
aI00
ag220
ag220
ag220
ag220
ag220
aI50591
aI176378
aI0
aI0
aI0
ag222
aI509870
aI73122
aI-1042
ag220
ag220
aI83237
aI50080
ag220
ag220
ag220
ag220
ag220
aI76547
aI00
aI235370
ag220
aI192008
ag220
ag220
aI900585
aI318607
aI0
aI0
aI0
aI1103722
aI850000
ag220
ag220
ag220
aS'kevin.garland@enron.com'
p262
aI636246
aI48405
aI44
aI10
aI27
ag220
aI375304
aI60814
aI00
aI259907
ag220
aI231946
aI178
aI209
aI1566469
aI896153
aF0.04784688995215311
aF0.6136363636363636
aF0.14624505928853754
aI2614345
ag220
ag220
ag220
ag220
ag220
aI1753766
ag220
ag220
ag220
ag220
ag220
ag220
ag220
aI00
aI264013
aI-72419
ag220
ag220
ag220
ag220
aI1945360
aI0
aI0
aI0
ag222
ag220
aI504610
ag220
ag220
aS'dana.gibbs@enron.com'
p263
aI2218275
ag220
aI12
aI0
aI0
ag220
aI461912
ag220
aI00
ag220
ag220
ag220
aI23
aI169
aI966522
aI2218275
aF0.0
aF0.0
aF0.0
ag222
ag220
ag220
ag220
ag220
ag220
aI9803
ag220
ag220
ag220
ag220
ag220
ag220
ag220
aI00
aI75838
ag220
ag220
ag220
ag220
ag220
aI85641
aI0
aI0
aI0
ag222
aI600000
ag220
ag220
ag220
aS'ben.glisan@enron.com'
p264
aI384728
aI125978
aI16
aI52
aI6
ag220
aI71023
aI200308
aI01
aI393818
ag220
aI274975
aI874
aI873
aI1272284
aI778546
aF0.05956471935853379
aF0.375
aF0.06524184476940383
aI2038249
aI750000
ag220
ag220
ag220
aS'joe.gold@enron.com'
p265
aI436515
ag220
ag220
ag220
ag220
ag220
aI304805
aI819288
aI00
aI441096
ag220
aI272880
ag220
ag220
aI2146973
aI877611
aI0
aI0
aI0
aI2337006
ag220
ag220
ag220
aI119292
ag220
ag220
ag220
ag220
ag220
ag220
ag220
ag220
ag220
aI00
ag220
ag220
ag220
ag220
ag220
aI119292
ag220
aI0
aI0
aI0
ag222
ag220
aI93585
ag220
ag220
ag220
ag220
ag220
ag220
ag220
ag220
ag220
aI365625
aI680833
aI00
ag220
ag220
aI6615
ag220
ag220
aI1146658
ag220
aI0
aI0
aI0
ag222
aI1150000
aI2157527
aI-934484
ag220
aS'mark.haedicke@enron.com'
p266
aI608750
aI76169
aI1941
aI180
aI61
ag220
aI983346
aI52382
aI00
aI524169
aI-329825
aI374125
aI1847
aI4009
aI3859065
aI803094
aF0.04489897730107259
aF0.03142709943328181
aF0.04050420168067227
aI2935969
aI1500000
ag220
aI-3117011
ag220
aS'kevin.hannon@enron.com'
p267
aI5538001
aI34039
aI32
aI32
aI21
ag220
aI1617011
aI11350
aI01
aI853064
ag220
aI243293
aI1035
aI1045
aI288682
aI6391065
aF0.03062200956937799
aF0.65625
aF0.04921077065923862
aI13672359
ag220
ag220
ag220
ag220
aS'david.haug@enron.com'
p268
ag220
aI475
aI19
aI4
aI7
ag220
ag220
ag220
aI00
aI2217299
ag220
ag220
aI471
aI573
aI475
aI2217299
aF0.006980802792321117
aF0.3684210526315789
aF0.018581081081081082
ag222
ag220
aI7961
ag220
ag220
aS'robert.hayes@enron.com'
p269
ag220
ag220
aI12
aI16
aI0
ag220
ag220
ag220
aI00
aI151418
ag220
ag220
aI50
aI504
aI7961
aI151418
aF0.031746031746031744
aF0.0
aF0.031007751937984496
ag222
ag220
ag220
ag220
ag220
aS'rod.hayslett@enron.com'
p270
ag220
ag220
aI1061
aI35
aI38
ag220
ag220
ag220
aI00
aI346663
ag220
ag220
aI571
aI2649
ag220
aI346663
aF0.01321253303133258
aF0.03581526861451461
aF0.019676549865229112
ag222
aI700000
ag220
aI-280000
ag220
aS'robert.hermann@enron.com'
p271
aI187500
aI48357
ag220
ag220
ag220
ag220
aI150000
aI416441
aI00
aI480632
ag220
aI262663
ag220
ag220
aI1297461
aI668132
aI0
aI0
aI0
aI1818295
aI1700000
ag220
ag220
ag220
aS'gary.hickerson@enron.com'
p272
ag220
aI98849
aI27
aI40
aI1
ag220
aI69223
aI1936
aI00
aI441096
ag220
aI211788
aI900
aI1320
aI2081796
aI441096
aF0.030303030303030304
aF0.037037037037037035
aF0.030438010393466965
ag222
ag220
aI10259
ag220
ag220
aS'joe.hirko@enron.com'
p273
aI30766064
aI77978
ag220
ag220
ag220
ag220
ag220
aI2856
aI01
ag220
ag220
ag220
ag220
ag220
aI91093
aI30766064
aI0
aI0
aI0
ag222
ag220
aI3131860
ag220
ag220
aS'stanley.horton@enron.com'
p274
aI5210569
ag220
aI1073
aI44
aI15
ag220
ag220
ag220
aI00
aI2046079
ag220
ag220
aI1074
aI2350
aI3131860
aI7256648
aF0.01872340425531915
aF0.013979496738117428
aF0.017236342389716622
ag222
ag220
ag220
ag220
ag220
aS'james.hughes@enron.com'
p275
aI754966
ag220
aI34
aI35
aI5
ag220
ag220
ag220
aI00
aI363428
ag220
ag220
aI589
aI719
ag220
aI1118394
aF0.048678720445062586
aF0.14705882352941177
aF0.05312084993359894
ag222
ag220
aI2964506
ag220
ag220
aS'gene.humphrey@enron.com'
p276
aI2282768
aI4994
aI17
aI10
aI17
ag220
ag220
ag220
aI00
ag220
ag220
aI130724
aI119
aI128
aI3100224
aI2282768
aF0.078125
aF1.0
aF0.18620689655172415
ag222
ag220
ag220
ag220
ag220
aS'larry.izzo@enron.com'
p277
aI2165172
aI28093
aI19
aI28
aI5
ag220
aI312500
aI1553729
aI00
aI3654808
ag220
aI85274
aI437
aI496
aI1979596
aI5819980
aF0.056451612903225805
aF0.2631578947368421
aF0.06407766990291262
ag222
aI250000
ag220
ag220
ag220
aS'charlene.jackson@enron.com'
p278
aI185063
aI10181
aI56
aI25
aI19
ag220
ag220
aI2435
aI00
aI540672
ag220
aI288558
aI117
aI258
aI551174
aI725735
aF0.09689922480620156
aF0.3392857142857143
aF0.14012738853503184
aI1449356
ag220
ag220
aI-25000
aI108750
ag220
aI431750
ag220
ag220
ag220
ag220
ag220
ag220
ag220
aI00
aI44093
aI-44093
ag220
ag220
ag220
aI83750
aI431750
aI0
aI0
aI0
ag222
aI400000
ag220
ag220
ag220
aS'vince.kaminski@enron.com'
p279
aI850010
aI83585
aI14368
aI41
aI171
ag220
aI323466
aI4669
aI00
aI126027
ag220
aI275101
aI583
aI4607
aI1086821
aI976037
aF0.008899500759713479
aF0.011901447661469933
aF0.011172595520421607
aI2501148
aI1000000
ag220
ag220
ag220
aS'steven.kean@enron.com'
p280
aI2022048
aI41953
aI6759
aI140
aI387
ag220
aI300000
aI1231
aI00
aI4131594
ag220
aI404338
aI3639
aI12754
aI1747522
aI6153642
aF0.010976948408342482
aF0.05725699067909454
aF0.02700763593501768
aI9580028
ag220
ag220
aI-51042
ag220
aS'joe.kishkill@enron.com'
p281
ag220
aI116335
ag220
ag220
ag220
ag220
ag220
aI465357
aI00
aI1034346
ag220
aI174246
ag220
ag220
aI704896
aI1034346
aI0
aI0
aI0
ag222
aI3100000
ag220
ag220
ag220
aS'louise.kitchen@enron.com'
p282
aI81042
aI5774
aI1728
aI251
aI194
ag220
ag220
aI93925
aI00
aI466101
ag220
aI271442
aI3669
aI8305
aI3471141
aI547143
aF0.030222757375075255
aF0.11226851851851852
aF0.044353633011063494
aI3999627
aI700000
ag220
ag220
ag220
aS'mark.koenig@enron.com'
p283
aI671737
aI127017
aI61
aI53
aI15
ag220
aI300000
aI150458
aI01
aI1248318
ag220
aI309946
aI2271
aI2374
aI1587421
aI1920055
aF0.02232518955349621
aF0.2459016393442623
aF0.02792607802874743
aI3601738
aI800000
ag220
ag220
ag220
aS'michael.kopper@enron.com'
p284
ag220
aI118134
ag220
ag220
ag220
ag220
aI602671
aI907502
aI01
aI985032
ag220
aI224305
ag220
ag220
aI2652612
aI985032
aI0
aI0
aI0
ag222
aI8000000
ag220
ag220
ag220
aS'john.lavorato@enron.com'
p285
aI4158995
aI49537
aI2585
aI528
aI411
ag220
aI2035380
aI1552
aI00
aI1008149
ag220
aI339288
aI3962
aI7259
aI10425757
aI5167144
aF0.07273729163796666
aF0.15899419729206962
aF0.09538805363673304
aI17665427
aI7000000
aI202911
aI-300000
ag220
aS'kenneth.lay@enron.com'
p286
aI34348384
aI99832
aI36
aI123
aI16
aI81525000
aI3600000
aI10359729
aI01
aI14761694
ag220
aI1072321
aI2411
aI4273
aI103559793
aI49110078
aF0.028785396676807865
aF0.4444444444444444
aF0.03225806451612903
aI91530783
aI1000000
ag220
ag220
ag220
aS'dan.leff@enron.com'
p287
ag220
ag220
aI63
aI67
aI14
ag220
aI1387399
aI3083
aI00
aI360528
ag220
aI273746
aI2672
aI2822
aI2664228
aI360528
aF0.02374202693125443
aF0.2222222222222222
aF0.028076256499133447
ag222
ag220
ag220
aI-25000
aI112492
ag220
aI412878
ag220
ag220
ag220
ag220
ag220
ag220
ag220
aI00
ag220
ag220
ag220
ag220
ag220
aI87492
aI412878
aI0
aI0
aI0
ag222
ag220
ag220
ag220
ag220
aS'richard.lewis@enron.com'
p288
aI850477
ag220
aI26
aI10
aI0
ag220
ag220
ag220
aI00
ag220
ag220
ag220
aI739
aI952
ag220
aI850477
aF0.01050420168067227
aF0.0
aF0.010224948875255624
ag222
aI200000
aI204075
ag220
ag220
aS'tod.lindholm@enron.com'
p289
aI2549361
aI57727
ag220
ag220
ag220
ag220
aI175000
aI2630
aI00
aI514847
ag220
aI236457
ag220
ag220
aI875889
aI3064208
aI0
aI0
aI0
aI6050026
ag220
ag220
ag220
ag220
ag220
aI372205
ag220
ag220
ag220
ag220
ag220
ag220
ag220
aI00
aI153686
aI-153686
ag220
ag220
ag220
ag220
aI372205
aI0
aI0
aI0
ag222
ag220
aI85430
ag220
ag220
aS'a..martin@enron.com'
p290
aI2070306
aI8211
aI230
aI8
aI0
ag220
aI5145434
aI2818454
aI00
ag220
ag220
aI349487
aI477
aI1522
aI8407016
aI2070306
aF0.005256241787122208
aF0.0
aF0.0045662100456621
ag222
ag220
ag220
ag220
ag220
aS'danny.mccarty@enron.com'
p291
aI664375
ag220
aI215
aI25
aI2
ag220
ag220
ag220
aI00
aI94556
ag220
ag220
aI508
aI1433
ag220
aI758931
aF0.017445917655268667
aF0.009302325581395349
aF0.016383495145631068
ag222
aI900000
ag220
aI-125000
ag220
aS'george.mcclellan@enron.com'
p292
aI506765
aI228763
aI49
aI52
aI0
ag220
ag220
aI51587
aI00
aI441096
ag220
aI263413
aI1469
aI1744
aI1318763
aI947861
aF0.02981651376146789
aF0.0
aF0.029001673173452314
aI2618039
aI1100000
ag220
ag220
ag220
aS'mike.mcconnell@enron.com'
p293
aI1623010
aI81364
aI2742
aI92
aI194
ag220
aI554422
aI540
aI00
aI1478269
ag220
aI365038
aI2189
aI3329
aI2101364
aI3101279
aF0.02763592670471613
aF0.07075127644055434
aF0.047109207708779445
aI6189327
ag220
ag220
ag220
ag220
aS'rebecca.mcdonald@enron.com'
p294
aI757301
ag220
aI13
aI54
aI1
ag220
ag220
ag220
aI00
aI934065
ag220
ag220
aI720
aI894
ag220
aI1691366
aF0.06040268456375839
aF0.07692307692307693
aF0.06063947078280044
ag222
aI2600000
ag220
ag220
ag220
aS'jeffrey.mcmahon@enron.com'
p295
aI1104054
aI137108
aI48
aI58
aI26
ag220
aI694862
aI297353
aI00
aI558801
ag220
aI370448
aI2228
aI2355
aI4099771
aI1662855
aF0.024628450106157114
aF0.5416666666666666
aF0.03495630461922597
aI5737357
ag220
ag220
aI-103750
aI103750
ag220
ag220
aI148
ag220
ag220
ag220
ag220
ag220
ag220
aI00
ag220
ag220
ag220
ag220
ag220
aI148
ag220
aI0
aI0
aI0
ag222
aI600000
ag220
ag220
ag220
aS'mark.metts@enron.com'
p296
ag220
aI94299
aI29
aI38
aI1
ag220
ag220
aI1740
aI00
aI585062
ag220
aI365788
aI702
aI807
aI1061827
aI585062
aF0.04708798017348203
aF0.034482758620689655
aF0.04665071770334928
ag222
ag220
ag220
aI-38346
aI38346
ag220
ag220
aI2151
ag220
ag220
ag220
ag220
ag220
ag220
aI00
ag220
ag220
ag220
ag220
ag220
aI2151
ag220
aI0
aI0
aI0
ag222
ag220
aI1848227
ag220
ag220
aS'rockford.meyer@enron.com'
p297
aI493489
ag220
aI28
aI0
aI0
ag220
ag220
ag220
aI00
aI462384
ag220
ag220
aI22
aI232
aI1848227
aI955873
aF0.0
aF0.0
aF0.0
ag222
ag220
ag220
ag220
ag220
aS'michael.moran@enron.com'
p298
aI59539
ag220
aI19
aI0
aI0
ag220
ag220
ag220
aI00
aI161602
ag220
ag220
aI127
aI672
ag220
aI221141
aF0.0
aF0.0
aF0.0
ag222
aI325000
ag220
ag220
ag220
aS'kristina.mordaunt@enron.com'
p299
ag220
aI35018
ag220
ag220
ag220
ag220
ag220
aI1411
aI00
aI208510
ag220
aI267093
ag220
ag220
aI628522
aI208510
aI0
aI0
aI0
ag222
aI1100000
aI842924
aI-719000
ag220
aS's..muller@enron.com'
p300
aI1056320
ag220
aI16
aI12
aI0
ag220
aI1725545
aI947
aI00
aI360528
ag220
aI251654
aI114
aI136
aI3202070
aI1416848
aF0.08823529411764706
aF0.0
aF0.07894736842105263
aI3824822
aI400000
ag220
ag220
ag220
aS'julia.murray@enron.com'
p301
aI400478
aI57580
aI45
aI11
aI2
ag220
aI125000
aI330
aI00
aI196983
ag220
aI229284
aI395
aI2192
aI812194
aI597461
aF0.005018248175182482
aF0.044444444444444446
aF0.00581135449262405
aI1627223
ag220
aI774401
ag220
ag220
ag220
ag220
ag220
ag220
ag220
ag220
ag220
ag220
ag220
aI00
aI463261
aI-94556
ag220
ag220
ag220
aI774401
aI368705
aI0
aI0
aI0
ag222
aI750000
aI77716
ag220
ag220
aS'cindy.olson@enron.com'
p302
aI1637034
aI63791
aI52
aI20
aI15
ag220
aI100000
aI972
aI00
aI969729
ag220
aI329078
aI856
aI1184
aI1321557
aI2606763
aF0.016891891891891893
aF0.28846153846153844
aF0.02831715210355987
aI5322875
ag220
ag220
ag220
ag220
aS'jere.overdyke@enron.com'
p303
aI5266578
aI18834
ag220
ag220
ag220
ag220
aI135836
aI176
aI00
aI2041016
ag220
aI94941
ag220
ag220
aI249787
aI7307594
aI0
aI0
aI0
ag222
aI1000000
ag220
ag220
ag220
aS'lou.pai@enron.com'
p304
aI15364167
aI32047
ag220
ag220
ag220
ag220
ag220
aI1829457
aI00
aI8453763
ag220
aI261879
ag220
ag220
aI3123383
aI23817930
aI0
aI0
aI0
aI40443976
ag220
ag220
aI-101250
aI101250
ag220
ag220
aI27942
ag220
ag220
ag220
ag220
ag220
ag220
aI00
ag220
ag220
ag220
ag220
ag220
aI27942
ag220
aI0
aI0
aI0
ag222
aI300000
ag220
ag220
ag220
aS'mark.pickering@enron.com'
p305
aI28798
aI31653
aI67
aI7
aI0
aI400000
ag220
ag220
aI00
ag220
ag220
aI655037
aI728
aI898
aI1386690
aI28798
aF0.0077951002227171495
aF0.0
aF0.007253886010362694
aI1012633
aI400000
aI1130036
aI-33333
ag220
aS'greg.piper@enron.com'
p306
aI880290
aI43057
aI222
aI61
aI48
ag220
ag220
aI778
aI00
aI409554
aI-409554
aI197091
aI742
aI1238
aI1737629
aI880290
aF0.049273021001615507
aF0.21621621621621623
aF0.07465753424657534
aI2357671
ag220
ag220
ag220
ag220
aS'jim.piro@enron.com'
p307
ag220
ag220
aI16
aI0
aI1
ag220
ag220
ag220
aI00
aI47304
ag220
ag220
aI3
aI58
ag220
aI47304
aF0.0
aF0.0625
aF0.013513513513513514
ag222
ag220
ag220
aI-17500
aI17500
aS'ken.powers@enron.com'
p308
ag220
ag220
aI26
aI0
aI0
ag220
ag220
ag220
aI00
ag220
ag220
ag220
aI12
aI653
ag220
ag220
aF0.0
aF0.0
aF0.0
ag222
ag220
aI564348
ag220
ag220
aS'james.prentice@enron.com'
p309
aI886231
ag220
ag220
ag220
ag220
ag220
ag220
ag220
aI00
aI208809
ag220
ag220
ag220
ag220
aI564348
aI1095040
aI0
aI0
aI0
ag222
ag220
ag220
ag220
ag220
aS'brian.redmond@enron.com'
p310
aI7509039
aI14689
aI221
aI204
aI49
ag220
ag220
ag220
aI00
aI381285
ag220
aI96840
aI1063
aI1671
aI111529
aI7890324
aF0.12208258527827648
aF0.22171945701357465
aF0.13372093023255813
ag222
aI100000
aI51365
aI-200000
ag220
ag220
aI4160672
aI8409
ag220
ag220
ag220
ag220
aI156250
aI202052
aI00
aI201483
aI-140264
aI76399
ag220
ag220
aI394475
aI4221891
aI0
aI0
aI0
aI8558962
aI1750000
ag220
aI-3504386
ag220
aS'ken.rice@enron.com'
p311
aI19794175
aI46950
aI18
aI42
aI4
ag220
aI1617011
aI174839
aI01
aI2748364
ag220
aI420636
aI864
aI905
aI505050
aI22542539
aF0.04640883977900553
aF0.2222222222222222
aF0.04983748645720477
aI44507350
aI700000
aI214678
aI-100000
ag220
aS'paula.rieker@enron.com'
p312
aI1635238
aI33271
aI82
aI35
aI48
ag220
ag220
aI1950
aI01
aI283649
ag220
aI249201
aI1258
aI1328
aI1099100
aI1918887
aF0.02635542168674699
aF0.5853658536585366
aF0.058865248226950356
aI4503326
ag220
ag220
aI-121284
aI125034
ag220
ag220
ag220
ag220
ag220
ag220
ag220
ag220
ag220
aI00
ag220
ag220
ag220
ag220
ag220
aI3750
ag220
aI0
aI0
aI0
ag222
ag220
ag220
ag220
ag220
aS'matthew.scrimshaw@enron.com'
p313
aI759557
ag220
ag220
ag220
ag220
ag220
ag220
ag220
aI00
ag220
ag220
ag220
ag220
ag220
ag220
aI759557
aI0
aI0
aI0
ag222
aI2000000
ag220
ag220
ag220
aS'jeffrey.shankman@enron.com'
p314
aI1441898
aI178979
aI2681
aI94
aI83
ag220
aI554422
aI1191
aI00
aI630137
ag220
aI304110
aI1730
aI3221
aI3038702
aI2072035
aF0.029183483390251473
aF0.030958597538232
aF0.029989833954591663
aI5818043
aI650000
ag220
ag220
ag220
aS'richard.shapiro@enron.com'
p315
aI607837
aI137767
aI1215
aI74
aI65
ag220
ag220
aI705
aI00
aI379164
ag220
aI269076
aI4527
aI15149
aI1057548
aI987001
aF0.0048848108786058485
aF0.053497942386831275
aF0.00849425568320704
aI2513914
aI600000
aI187469
ag220
ag220
aS'vicki.sharp@enron.com'
p316
aI281073
aI116337
aI136
aI24
aI6
ag220
aI422158
aI2401
aI00
aI213063
ag220
aI248146
aI2477
aI3136
aI1576511
aI494136
aF0.007653061224489796
aF0.04411764705882353
aF0.009168704156479218
aI1623355
aI200000
ag220
aI-4167
ag220
aS'rex.shelby@enron.com'
p317
aI1624396
aI22884
aI39
aI13
aI14
ag220
ag220
aI1573324
aI01
aI869220
ag220
aI211844
aI91
aI225
aI2003885
aI2493616
aF0.057777777777777775
aF0.358974358974359
aF0.10227272727272728
aI4529856
ag220
ag220
ag220
ag220
aS'jeffrey.sherrick@enron.com'
p318
aI1426469
ag220
aI25
aI39
aI18
ag220
ag220
ag220
aI00
aI405999
ag220
ag220
aI583
aI613
ag220
aI1832468
aF0.0636215334420881
aF0.72
aF0.08934169278996865
ag222
aI1500000
ag220
ag220
ag220
aS'john.sherriff@enron.com'
p319
aI1835558
ag220
aI92
aI28
aI23
ag220
aI554422
aI1852186
aI00
aI1293424
ag220
aI428780
aI2103
aI3187
aI4335388
aI3128982
aF0.008785691873235017
aF0.25
aF0.01555352241537054
aI6893320
aI5600000
ag220
ag220
ag220
aS'jeff.skilling@enron.com'
p320
aI19250000
aI29336
aI108
aI88
aI30
ag220
aI1920000
aI22122
aI01
aI6843672
ag220
aI1111258
aI2042
aI3627
aI8682716
aI26093672
aF0.0242624758753791
aF0.2777777777777778
aF0.03159303882195449
aI52054930
aI500000
ag220
ag220
ag220
aS'frank.stabler@enron.com'
p321
ag220
aI16514
ag220
ag220
ag220
ag220
ag220
aI356071
aI00
aI511734
ag220
aI239502
ag220
ag220
aI1112087
aI511734
aI0
aI0
aI0
ag222
aI100000
aI181993
ag220
ag220
ag220
aI1362375
ag220
ag220
ag220
ag220
ag220
aI554422
aI162
aI00
ag220
ag220
aI162779
ag220
ag220
aI999356
aI1362375
aI0
aI0
aI0
aI2987529
aI700000
ag220
ag220
ag220
aS'marty.sunde@enron.com'
p322
ag220
ag220
aI38
aI37
aI13
ag220
aI476451
aI111122
aI00
aI698920
ag220
aI257486
aI2565
aI2647
aI1545059
aI698920
aF0.013978088401964487
aF0.34210526315789475
aF0.0186219739292365
ag222
aI600000
aI227449
ag220
ag220
aS'mitchell.taylor@enron.com'
p323
aI3181250
ag220
aI29
aI0
aI0
ag220
ag220
ag220
aI00
aI563798
ag220
aI265214
aI300
aI533
aI1092663
aI3745048
aF0.0
aF0.0
aF0.0
aI7791512
ag220
aI16586
ag220
ag220
aS'terence.thorn@enron.com'
p324
aI4452476
aI46145
aI41
aI0
aI0
ag220
aI200000
aI426629
aI00
aI365320
ag220
aI222093
aI73
aI266
aI911453
aI4817796
aF0.0
aF0.0
aF0.0
ag222
aI300000
ag220
aI-575000
ag220
aS'elizabeth.tilney@enron.com'
p325
aI591250
ag220
aI19
aI10
aI11
ag220
aI275000
aI152055
aI00
aI576792
ag220
aI247338
aI379
aI460
aI399393
aI1168042
aF0.021739130434782608
aF0.5789473684210527
aF0.04384133611691023
aI2306630
aI788750
ag220
ag220
ag220
aS'adam.umanoff@enron.com'
p326
ag220
aI53122
aI18
aI12
aI0
ag220
ag220
ag220
aI00
ag220
ag220
aI288589
aI41
aI111
aI1130461
ag220
aF0.10810810810810811
aF0.0
aF0.09302325581395349
ag222
ag220
ag220
aI-36666
aI36666
ag220
ag220
aI228656
ag220
ag220
ag220
ag220
ag220
ag220
aI00
ag220
ag220
ag220
ag220
ag220
aI228656
ag220
aI0
aI0
aI0
ag222
ag220
ag220
ag220
aI109298
ag220
ag220
aI103773
ag220
ag220
ag220
ag220
ag220
ag220
aI00
ag220
ag220
ag220
ag220
ag220
aI213071
ag220
aI0
aI0
aI0
ag222
aI850000
ag220
ag220
ag220
aS'rob.walls@enron.com'
p327
aI4346544
aI50936
aI146
aI17
aI0
ag220
aI540751
aI2
aI00
aI1552453
ag220
aI357091
aI215
aI671
aI1798780
aI5898997
aF0.02533532041728763
aF0.0
aF0.0208078335373317
aI11452632
ag220
aI53625
ag220
ag220
ag220
aI1030329
aI33785
ag220
ag220
ag220
ag220
ag220
ag220
aI00
ag220
ag220
ag220
ag220
ag220
aI87410
aI1030329
aI0
aI0
aI0
ag222
aI325000
aI831299
aI-583325
ag220
aS'george.wasaff@enron.com'
p328
aI1668260
ag220
aI30
aI22
aI7
ag220
aI200000
aI1425
aI00
aI388167
ag220
aI259996
aI337
aI400
aI1034395
aI2056427
aF0.055
aF0.23333333333333334
aF0.06744186046511629
aI4309683
ag220
ag220
aI-10800
ag220
aS'dick.westfahl@enron.com'
p329
ag220
aI51870
ag220
ag220
ag220
ag220
aI256191
aI401130
aI00
aI384930
ag220
aI63744
ag220
ag220
aI762135
aI384930
aI0
aI0
aI0
ag222
ag220
ag220
ag220
ag220
ag220
aI98718
ag220
ag220
ag220
ag220
ag220
ag220
ag220
aI00
ag220
ag220
ag220
ag220
ag220
ag220
aI98718
aI0
aI0
aI0
ag222
aI3000000
ag220
ag220
ag220
aS'greg.whalley@enron.com'
p330
aI3282960
aI57838
aI556
aI186
aI24
ag220
aI808346
aI301026
aI00
aI2796177
ag220
aI510364
aI3920
aI6019
aI4677574
aI6079137
aF0.03090214321315833
aF0.04316546762589928
aF0.03193916349809886
aI12872461
aI450000
ag220
ag220
ag220
aS'thomas.white@enron.com'
p331
aI1297049
aI81353
ag220
ag220
ag220
ag220
ag220
aI1085463
aI00
aI13847074
ag220
aI317543
ag220
ag220
aI1934359
aI15144123
aI0
aI0
aI0
aI17208715
ag220
ag220
aI-25000
aI108579
ag220
ag220
aI1413
ag220
ag220
ag220
ag220
ag220
ag220
aI00
ag220
ag220
ag220
ag220
ag220
aI84992
ag220
aI0
aI0
aI0
ag222
ag220
ag220
ag220
ag220
aS'john.wodraska@enron.com'
p332
ag220
ag220
ag220
ag220
ag220
ag220
ag220
aI189583
aI00
ag220
ag220
ag220
ag220
ag220
aI189583
ag220
aI0
aI0
aI0
ag222
ag220
ag220
ag220
ag220
ag220
aI139130
ag220
ag220
ag220
ag220
ag220
ag220
ag220
aI00
ag220
ag220
ag220
ag220
ag220
ag220
aI139130
aI0
aI0
aI0
ag222
ag220
ag220
ag220
ag220
aS'scott.yeager@enron.com'
p333
aI8308552
aI53947
ag220
ag220
ag220
ag220
ag220
aI147950
aI01
aI3576206
ag220
aI158403
ag220
ag220
aI360300
aI11884758
aI0
aI0
aI0
ag222
ag220
ag220
ag220
ag220
ag220
aI192758
aI55097
ag220
ag220
ag220
ag220
ag220
ag220
aI00
ag220
ag220
ag220
ag220
ag220
aI55097
aI192758
aI0
aI0
aI0
ag222
atp334
ba(lp335
g15
(g16
(dp336
g18
g19
(g20
(I0
tp337
g22
tp338
Rp339
(I1
(I143
tp340
g29
I00
(lp341
g33
ag34
ag35
ag36
ag37
ag38
ag39
ag40
ag41
ag42
ag43
ag44
ag45
ag46
ag47
ag48
ag49
ag50
ag51
ag52
ag53
ag54
ag55
ag56
ag57
ag58
ag59
ag60
ag61
ag62
ag63
ag64
ag65
ag66
ag67
ag68
ag69
ag70
ag71
ag72
ag73
ag74
ag75
ag76
ag77
ag78
ag79
ag80
ag81
ag82
ag83
ag84
ag85
ag86
ag87
ag88
ag89
ag90
ag91
ag92
ag93
ag94
ag95
ag96
ag97
ag98
ag99
ag100
ag101
ag102
ag103
ag104
ag105
ag106
ag107
ag108
ag109
ag110
ag111
ag112
ag113
ag114
ag115
ag116
ag117
ag118
ag119
ag120
ag121
ag122
ag123
ag124
ag125
ag126
ag127
ag128
ag129
ag130
ag131
ag132
ag133
ag134
ag135
ag136
ag137
ag138
ag139
ag140
ag141
ag142
ag143
ag144
ag145
ag146
ag147
ag148
ag149
ag150
ag151
ag152
ag153
ag154
ag155
ag156
ag157
ag158
ag159
ag160
ag161
ag162
ag163
ag164
ag165
ag166
ag167
ag168
ag169
ag170
ag171
ag172
ag173
ag174
ag175
atp342
bsg177
Nstp343
Rp344
a(dp345
S'0.14.1'
p346
(dp347
S'axes'
p348
g14
sS'blocks'
p349
(lp350
(dp351
S'mgr_locs'
p352
c__builtin__
slice
p353
(I0
I143
I1
tp354
Rp355
sS'values'
p356
g217
sasstp357
bsb.